target datalayout = "e-m:e-p270:32:32-p271:32:32-p272:64:64-i64:64-i128:128-f80:128-n8:16:32:64-S128"
target triple = "x86_64-pc-linux-gnu"

; Function Attrs: mustprogress uwtable
define void @_ZN9Scheduler9SortHandsE7RunMode(ptr noundef nonnull align 8 dereferenceable(43416) %0, i32 noundef %1) #4 align 2 {
  %3 = alloca ptr, align 8
  %4 = alloca i32, align 4
  store ptr %0, ptr %3, align 8
  store i32 %1, ptr %4, align 4
  %5 = load ptr, ptr %3, align 8
  %6 = load i32, ptr %4, align 4
  %7 = icmp eq i32 %6, 0
  br i1 %7, label %8, label %9

8:                                                ; preds = %2
  call void @_ZN9Scheduler9SortSolveEv(ptr noundef nonnull align 8 dereferenceable(43416) %5)
  br label %19

9:                                                ; preds = %2
  %10 = load i32, ptr %4, align 4
  %11 = icmp eq i32 %10, 1
  br i1 %11, label %12, label %13

12:                                               ; preds = %9
  call void @_ZN9Scheduler8SortCalcEv(ptr noundef nonnull align 8 dereferenceable(43416) %5)
  br label %18

13:                                               ; preds = %9
  %14 = load i32, ptr %4, align 4
  %15 = icmp eq i32 %14, 2
  br i1 %15, label %16, label %17

16:                                               ; preds = %13
  call void @_ZN9Scheduler9SortTraceEv(ptr noundef nonnull align 8 dereferenceable(43416) %5)
  br label %17

17:                                               ; preds = %16, %13
  br label %18

18:                                               ; preds = %17, %12
  br label %19

19:                                               ; preds = %18, %8
  ret void
}