; Function Attrs: mustprogress nofree nounwind memory(readwrite, inaccessiblemem: write) uwtable
define void @_ZN9Scheduler9SortHandsE7RunMode(ptr nocapture noundef nonnull align 8 dereferenceable(43416) %0, i32 noundef %1) local_unnamed_addr #6 align 2 {
  switch i32 %1, label %6 [
    i32 0, label %3
    i32 1, label %4
    i32 2, label %5
  ]

3:                                                ; preds = %2
  tail call void @_ZN9Scheduler9SortSolveEv(ptr noundef nonnull align 8 dereferenceable(43416) %0)
  br label %6

4:                                                ; preds = %2
  tail call void @_ZN9Scheduler8SortCalcEv(ptr noundef nonnull align 8 dereferenceable(43416) %0)
  br label %6

5:                                                ; preds = %2
  tail call void @_ZN9Scheduler9SortTraceEv(ptr noundef nonnull align 8 dereferenceable(43416) %0)
  br label %6

6:                                                ; preds = %2, %4, %5, %3
  ret void
}